Archive member included because of file (symbol)

/Users/anselzandegran/Pebble-dev/pebble-sdk-release-001/demos/ScoreKeeper/lib/libpebble.a(tmpE96Sgtpebble_os.o)
                              src/ScoreKeeper.c.1.o (app_timer_send_event)
/Users/anselzandegran/Pebble-dev/arm-cs-tools/bin/../lib/gcc/arm-none-eabi/4.6.3/../../../../arm-none-eabi/lib/thumb2/libc.a(lib_a-memset.o)
                              src/ScoreKeeper.c.1.o (memset)

Allocating common symbols
Common symbol       size              file

app                 0x4               src/ScoreKeeper.c.1.o

Memory Configuration

Name             Origin             Length             Attributes
APP              0x0000000000000000 0x0000000000006000 xrw
*default*        0x0000000000000000 0xffffffffffffffff

Linker script and memory map

LOAD /Users/anselzandegran/Pebble-dev/arm-cs-tools/bin/../lib/gcc/arm-none-eabi/4.6.3/thumb2/crti.o
LOAD /Users/anselzandegran/Pebble-dev/arm-cs-tools/bin/../lib/gcc/arm-none-eabi/4.6.3/thumb2/crtbegin.o
LOAD src/ScoreKeeper.c.1.o
LOAD /Users/anselzandegran/Pebble-dev/pebble-sdk-release-001/demos/ScoreKeeper/lib/libpebble.a
START GROUP
LOAD /Users/anselzandegran/Pebble-dev/arm-cs-tools/bin/../lib/gcc/arm-none-eabi/4.6.3/thumb2/libgcc.a
LOAD /Users/anselzandegran/Pebble-dev/arm-cs-tools/bin/../lib/gcc/arm-none-eabi/4.6.3/../../../../arm-none-eabi/lib/thumb2/libc.a
END GROUP
LOAD /Users/anselzandegran/Pebble-dev/arm-cs-tools/bin/../lib/gcc/arm-none-eabi/4.6.3/thumb2/crtend.o
LOAD /Users/anselzandegran/Pebble-dev/arm-cs-tools/bin/../lib/gcc/arm-none-eabi/4.6.3/thumb2/crtn.o

.header         0x0000000000000000       0x7c
 *(.pbl_header)
 .pbl_header    0x0000000000000000       0x7c src/ScoreKeeper.c.1.o
                0x0000000000000000                __pbl_app_info

.text           0x000000000000007c     0x14e4
 *(.text)
 .text          0x000000000000007c        0x0 /Users/anselzandegran/Pebble-dev/arm-cs-tools/bin/../lib/gcc/arm-none-eabi/4.6.3/thumb2/crti.o
 .text          0x000000000000007c       0x68 /Users/anselzandegran/Pebble-dev/arm-cs-tools/bin/../lib/gcc/arm-none-eabi/4.6.3/thumb2/crtbegin.o
 .text          0x00000000000000e4      0x8f0 src/ScoreKeeper.c.1.o
                0x00000000000000e4                update_vibe_icon
                0x0000000000000188                handle_init
                0x00000000000003c8                handle_deinit
                0x00000000000003e8                vibe_handler
                0x0000000000000430                reset_handler
                0x000000000000049c                Aincrement_handler
                0x0000000000000504                Adecrement_handler
                0x000000000000057c                Bincrement_handler
                0x00000000000005e4                Bdecrement_handler
                0x000000000000065c                itoa2
                0x0000000000000854                update_stopwatch
                0x00000000000008c0                handle_timer
                0x00000000000008d8                config_provider
                0x0000000000000984                pbl_main
 .text          0x00000000000009d4      0xb8c /Users/anselzandegran/Pebble-dev/pebble-sdk-release-001/demos/ScoreKeeper/lib/libpebble.a(tmpE96Sgtpebble_os.o)
                0x00000000000009d4                animation_init
                0x00000000000009e0                animation_set_delay
                0x00000000000009ec                animation_set_duration
                0x00000000000009f8                animation_set_curve
                0x0000000000000a04                animation_set_handlers
                0x0000000000000a10                animation_set_implementation
                0x0000000000000a1c                animation_get_context
                0x0000000000000a28                animation_schedule
                0x0000000000000a34                animation_unschedule
                0x0000000000000a40                animation_unschedule_all
                0x0000000000000a4c                animation_is_scheduled
                0x0000000000000a58                app_timer_send_event
                0x0000000000000a64                app_timer_cancel_event
                0x0000000000000a70                app_event_loop
                0x0000000000000a7c                bmp_init_container
                0x0000000000000a88                bmp_deinit_container
                0x0000000000000a94                cos_lookup
                0x0000000000000aa0                fonts_get_system_font
                0x0000000000000aac                fonts_load_custom_font
                0x0000000000000ab8                fonts_unload_custom_font
                0x0000000000000ac4                graphics_context_set_stroke_color
                0x0000000000000ad0                graphics_context_set_fill_color
                0x0000000000000adc                graphics_context_set_text_color
                0x0000000000000ae8                graphics_context_set_compositing_mode
                0x0000000000000af4                graphics_draw_pixel
                0x0000000000000b00                graphics_draw_line
                0x0000000000000b0c                graphics_fill_rect
                0x0000000000000b18                graphics_draw_circle
                0x0000000000000b24                graphics_fill_circle
                0x0000000000000b30                graphics_draw_round_rect
                0x0000000000000b3c                get_time
                0x0000000000000b48                gpath_init
                0x0000000000000b54                gpath_move_to
                0x0000000000000b60                gpath_rotate_to
                0x0000000000000b6c                gpath_draw_outline
                0x0000000000000b78                gpath_draw_filled
                0x0000000000000b84                grect_center_point
                0x0000000000000b90                layer_mark_dirty
                0x0000000000000b9c                layer_remove_from_parent
                0x0000000000000ba8                layer_add_child
                0x0000000000000bb4                layer_get_frame
                0x0000000000000bc0                layer_set_frame
                0x0000000000000bcc                layer_set_hidden
                0x0000000000000bd8                layer_init
                0x0000000000000be4                light_enable
                0x0000000000000bf0                light_enable_interaction
                0x0000000000000bfc                psleep
                0x0000000000000c08                resource_init_current_app
                0x0000000000000c14                resource_get_handle
                0x0000000000000c20                resource_load
                0x0000000000000c2c                resource_load_byte_range
                0x0000000000000c38                resource_size
                0x0000000000000c44                rotbmp_deinit_container
                0x0000000000000c50                rotbmp_init_container
                0x0000000000000c5c                rotbmp_pair_deinit_container
                0x0000000000000c68                rotbmp_pair_init_container
                0x0000000000000c74                rotbmp_pair_layer_set_src_ic
                0x0000000000000c80                rotbmp_pair_layer_set_angle
                0x0000000000000c8c                window_init
                0x0000000000000c98                window_stack_push
                0x0000000000000ca4                window_set_click_config_provider
                0x0000000000000cb0                window_set_background_color
                0x0000000000000cbc                window_render
                0x0000000000000cc8                window_set_fullscreen
                0x0000000000000cd4                sin_lookup
                0x0000000000000ce0                string_format_time
                0x0000000000000cec                text_layer_init
                0x0000000000000cf8                text_layer_get_text
                0x0000000000000d04                text_layer_set_text
                0x0000000000000d10                text_layer_set_font
                0x0000000000000d1c                text_layer_set_text_color
                0x0000000000000d28                text_layer_set_background_color
                0x0000000000000d34                vibes_double_pulse
                0x0000000000000d40                vibes_enqueue_custom_pattern
                0x0000000000000d4c                vibes_long_pulse
                0x0000000000000d58                vibes_short_pulse
                0x0000000000000d64                app_get_current_graphics_context
                0x0000000000000d70                clock_is_24h_style
                0x0000000000000d7c                property_animation_init_layer_frame
                0x0000000000000d88                text_layer_set_text_alignment
                0x0000000000000d94                graphics_draw_bitmap_in_rect
                0x0000000000000da0                graphics_text_draw
                0x0000000000000dac                layer_set_bounds
                0x0000000000000db8                layer_get_bounds
                0x0000000000000dc4                layer_set_update_proc
                0x0000000000000dd0                layer_get_window
                0x0000000000000ddc                layer_remove_child_layers
                0x0000000000000de8                layer_insert_below_sibling
                0x0000000000000df4                layer_insert_above_sibling
                0x0000000000000e00                layer_get_hidden
                0x0000000000000e0c                layer_set_clips
                0x0000000000000e18                layer_get_clips
                0x0000000000000e24                text_layer_get_max_used_size
                0x0000000000000e30                text_layer_set_size
                0x0000000000000e3c                text_layer_set_overflow_mode
                0x0000000000000e48                graphics_text_layout_get_max_used_size
                0x0000000000000e54                inverter_layer_init
                0x0000000000000e60                bitmap_layer_init
                0x0000000000000e6c                bitmap_layer_set_bitmap
                0x0000000000000e78                bitmap_layer_set_alignment
                0x0000000000000e84                bitmap_layer_set_background_color
                0x0000000000000e90                bitmap_layer_set_compositing_mode
                0x0000000000000e9c                heap_bitmap_init
                0x0000000000000ea8                heap_bitmap_deinit
                0x0000000000000eb4                click_recognizer_get_button_id
                0x0000000000000ec0                click_number_of_clicks_counted
                0x0000000000000ecc                menu_cell_basic_draw
                0x0000000000000ed8                menu_cell_title_draw
                0x0000000000000ee4                menu_cell_basic_header_draw
                0x0000000000000ef0                menu_layer_init
                0x0000000000000efc                menu_layer_get_layer
                0x0000000000000f08                menu_layer_set_callbacks
                0x0000000000000f14                menu_layer_set_click_config_onto_window
                0x0000000000000f20                menu_layer_set_selected_next
                0x0000000000000f2c                menu_layer_set_selected_index
                0x0000000000000f38                menu_layer_reload_data
                0x0000000000000f44                menu_index_compare
                0x0000000000000f50                scroll_layer_init
                0x0000000000000f5c                scroll_layer_add_child
                0x0000000000000f68                scroll_layer_set_click_config_onto_window
                0x0000000000000f74                scroll_layer_set_callbacks
                0x0000000000000f80                scroll_layer_set_context
                0x0000000000000f8c                scroll_layer_set_content_offset
                0x0000000000000f98                scroll_layer_get_content_offset
                0x0000000000000fa4                scroll_layer_set_content_size
                0x0000000000000fb0                scroll_layer_get_content_size
                0x0000000000000fbc                scroll_layer_set_frame
                0x0000000000000fc8                scroll_layer_scroll_up_click_handler
                0x0000000000000fd4                scroll_layer_scroll_down_click_handler
                0x0000000000000fe0                simple_menu_layer_init
                0x0000000000000fec                simple_menu_layer_get_layer
                0x0000000000000ff8                simple_menu_layer_get_selected_index
                0x0000000000001004                simple_menu_layer_set_selected_index
                0x0000000000001010                window_deinit
                0x000000000000101c                window_set_click_config_provider_with_context
                0x0000000000001028                window_get_click_config_provider
                0x0000000000001034                window_set_window_handlers
                0x0000000000001040                window_get_root_layer
                0x000000000000104c                window_get_fullscreen
                0x0000000000001058                window_set_status_bar_icon
                0x0000000000001064                window_is_loaded
                0x0000000000001070                window_stack_pop
                0x000000000000107c                window_stack_pop_all
                0x0000000000001088                window_stack_contains_window
                0x0000000000001090                window_stack_get_top_window
                0x0000000000001098                window_stack_remove
                0x00000000000010a0                property_animation_init
                0x00000000000010a8                property_animation_update_int16
                0x00000000000010b0                property_animation_update_gpoint
                0x00000000000010b8                property_animation_update_grect
                0x00000000000010c0                app_message_register_callbacks
                0x00000000000010c8                app_message_deregister_callbacks
                0x00000000000010d0                app_message_out_get
                0x00000000000010d8                app_message_out_send
                0x00000000000010e0                app_message_out_release
                0x00000000000010e8                app_sync_init
                0x00000000000010f0                app_sync_deinit
                0x00000000000010f8                app_sync_set
                0x0000000000001100                app_sync_get
                0x0000000000001108                dict_calc_buffer_size
                0x0000000000001110                dict_write_begin
                0x0000000000001118                dict_write_data
                0x0000000000001120                dict_write_cstring
                0x0000000000001128                dict_write_int
                0x0000000000001130                dict_write_uint8
                0x0000000000001138                dict_write_uint16
                0x0000000000001140                dict_write_uint32
                0x0000000000001148                dict_write_int8
                0x0000000000001150                dict_write_int16
                0x0000000000001158                dict_write_int32
                0x0000000000001160                dict_write_end
                0x0000000000001168                dict_read_begin_from_buffer
                0x0000000000001170                dict_read_next
                0x0000000000001178                dict_read_first
                0x0000000000001180                dict_serialize_tuplets
                0x0000000000001188                dict_serialize_tuplets_to_buffer
                0x0000000000001190                dict_serialize_tuplets_to_buffer_with_iter
                0x0000000000001198                dict_write_tuplet
                0x00000000000011a0                dict_calc_buffer_size_from_tuplets
                0x00000000000011a8                dict_merge
                0x00000000000011b0                dict_find
                0x00000000000011b8                action_bar_layer_init
                0x00000000000011c0                action_bar_layer_set_context
                0x00000000000011c8                action_bar_layer_set_click_config_provider
                0x00000000000011d0                action_bar_layer_set_icon
                0x00000000000011d8                action_bar_layer_clear_icon
                0x00000000000011e0                action_bar_layer_add_to_window
                0x00000000000011e8                action_bar_layer_remove_from_window
                0x00000000000011f0                action_bar_layer_set_background_color
                0x00000000000011f8                number_window_init
                0x0000000000001200                number_window_set_label
                0x0000000000001208                number_window_set_max
                0x0000000000001210                number_window_set_min
                0x0000000000001218                number_window_set_value
                0x0000000000001220                number_window_set_step_size
                0x0000000000001228                number_window_get_value
                0x0000000000001230                clock_copy_time_string
 .text          0x0000000000001560        0x0 /Users/anselzandegran/Pebble-dev/arm-cs-tools/bin/../lib/gcc/arm-none-eabi/4.6.3/../../../../arm-none-eabi/lib/thumb2/libc.a(lib_a-memset.o)
 .text          0x0000000000001560        0x0 /Users/anselzandegran/Pebble-dev/arm-cs-tools/bin/../lib/gcc/arm-none-eabi/4.6.3/thumb2/crtend.o
 .text          0x0000000000001560        0x0 /Users/anselzandegran/Pebble-dev/arm-cs-tools/bin/../lib/gcc/arm-none-eabi/4.6.3/thumb2/crtn.o

.glue_7         0x0000000000001560        0x0
 .glue_7        0x0000000000000000        0x0 linker stubs

.glue_7t        0x0000000000001560        0x0
 .glue_7t       0x0000000000000000        0x0 linker stubs

.vfp11_veneer   0x0000000000001560        0x0
 .vfp11_veneer  0x0000000000000000        0x0 linker stubs

.v4_bx          0x0000000000001560        0x0
 .v4_bx         0x0000000000000000        0x0 linker stubs

.init           0x0000000000001560        0xc
 .init          0x0000000000001560        0x4 /Users/anselzandegran/Pebble-dev/arm-cs-tools/bin/../lib/gcc/arm-none-eabi/4.6.3/thumb2/crti.o
                0x0000000000001560                _init
 .init          0x0000000000001564        0x8 /Users/anselzandegran/Pebble-dev/arm-cs-tools/bin/../lib/gcc/arm-none-eabi/4.6.3/thumb2/crtn.o

.fini           0x000000000000156c        0xc
 .fini          0x000000000000156c        0x4 /Users/anselzandegran/Pebble-dev/arm-cs-tools/bin/../lib/gcc/arm-none-eabi/4.6.3/thumb2/crti.o
                0x000000000000156c                _fini
 .fini          0x0000000000001570        0x8 /Users/anselzandegran/Pebble-dev/arm-cs-tools/bin/../lib/gcc/arm-none-eabi/4.6.3/thumb2/crtn.o

.iplt           0x0000000000001578        0x0
 .iplt          0x0000000000000000        0x0 /Users/anselzandegran/Pebble-dev/arm-cs-tools/bin/../lib/gcc/arm-none-eabi/4.6.3/thumb2/crti.o

.text.memset    0x0000000000001578       0x10
 .text.memset   0x0000000000001578       0x10 /Users/anselzandegran/Pebble-dev/arm-cs-tools/bin/../lib/gcc/arm-none-eabi/4.6.3/../../../../arm-none-eabi/lib/thumb2/libc.a(lib_a-memset.o)
                0x0000000000001578                memset

.data           0x0000000000001588       0x14
 *(.data)
 .data          0x0000000000001588        0x0 /Users/anselzandegran/Pebble-dev/arm-cs-tools/bin/../lib/gcc/arm-none-eabi/4.6.3/thumb2/crti.o
 .data          0x0000000000001588        0x4 /Users/anselzandegran/Pebble-dev/arm-cs-tools/bin/../lib/gcc/arm-none-eabi/4.6.3/thumb2/crtbegin.o
                0x0000000000001588                __dso_handle
 .data          0x000000000000158c       0x10 src/ScoreKeeper.c.1.o
 .data          0x000000000000159c        0x0 /Users/anselzandegran/Pebble-dev/pebble-sdk-release-001/demos/ScoreKeeper/lib/libpebble.a(tmpE96Sgtpebble_os.o)
 .data          0x000000000000159c        0x0 /Users/anselzandegran/Pebble-dev/arm-cs-tools/bin/../lib/gcc/arm-none-eabi/4.6.3/../../../../arm-none-eabi/lib/thumb2/libc.a(lib_a-memset.o)
 .data          0x000000000000159c        0x0 /Users/anselzandegran/Pebble-dev/arm-cs-tools/bin/../lib/gcc/arm-none-eabi/4.6.3/thumb2/crtend.o
 .data          0x000000000000159c        0x0 /Users/anselzandegran/Pebble-dev/arm-cs-tools/bin/../lib/gcc/arm-none-eabi/4.6.3/thumb2/crtn.o

.igot.plt       0x000000000000159c        0x0
 .igot.plt      0x0000000000000000        0x0 /Users/anselzandegran/Pebble-dev/arm-cs-tools/bin/../lib/gcc/arm-none-eabi/4.6.3/thumb2/crti.o

.got            0x000000000000159c        0x4
 .got           0x000000000000159c        0x4 /Users/anselzandegran/Pebble-dev/arm-cs-tools/bin/../lib/gcc/arm-none-eabi/4.6.3/thumb2/crti.o

.got.plt        0x00000000000015a0        0xc
 .got.plt       0x00000000000015a0        0xc /Users/anselzandegran/Pebble-dev/arm-cs-tools/bin/../lib/gcc/arm-none-eabi/4.6.3/thumb2/crti.o
                0x00000000000015a0                _GLOBAL_OFFSET_TABLE_

.init_array     0x00000000000015ac        0x4
 .init_array    0x00000000000015ac        0x4 /Users/anselzandegran/Pebble-dev/arm-cs-tools/bin/../lib/gcc/arm-none-eabi/4.6.3/thumb2/crtbegin.o

.fini_array     0x00000000000015b0        0x4
 .fini_array    0x00000000000015b0        0x4 /Users/anselzandegran/Pebble-dev/arm-cs-tools/bin/../lib/gcc/arm-none-eabi/4.6.3/thumb2/crtbegin.o

.jcr            0x00000000000015b4        0x4
 .jcr           0x00000000000015b4        0x0 /Users/anselzandegran/Pebble-dev/arm-cs-tools/bin/../lib/gcc/arm-none-eabi/4.6.3/thumb2/crtbegin.o
 .jcr           0x00000000000015b4        0x4 /Users/anselzandegran/Pebble-dev/arm-cs-tools/bin/../lib/gcc/arm-none-eabi/4.6.3/thumb2/crtend.o

.bss            0x00000000000015b8      0x178
 *(.bss)
 .bss           0x00000000000015b8        0x0 /Users/anselzandegran/Pebble-dev/arm-cs-tools/bin/../lib/gcc/arm-none-eabi/4.6.3/thumb2/crti.o
 .bss           0x00000000000015b8       0x1c /Users/anselzandegran/Pebble-dev/arm-cs-tools/bin/../lib/gcc/arm-none-eabi/4.6.3/thumb2/crtbegin.o
 .bss           0x00000000000015d4      0x158 src/ScoreKeeper.c.1.o
 .bss           0x000000000000172c        0x0 /Users/anselzandegran/Pebble-dev/pebble-sdk-release-001/demos/ScoreKeeper/lib/libpebble.a(tmpE96Sgtpebble_os.o)
 .bss           0x000000000000172c        0x0 /Users/anselzandegran/Pebble-dev/arm-cs-tools/bin/../lib/gcc/arm-none-eabi/4.6.3/../../../../arm-none-eabi/lib/thumb2/libc.a(lib_a-memset.o)
 .bss           0x000000000000172c        0x0 /Users/anselzandegran/Pebble-dev/arm-cs-tools/bin/../lib/gcc/arm-none-eabi/4.6.3/thumb2/crtend.o
 .bss           0x000000000000172c        0x0 /Users/anselzandegran/Pebble-dev/arm-cs-tools/bin/../lib/gcc/arm-none-eabi/4.6.3/thumb2/crtn.o
 COMMON         0x000000000000172c        0x4 src/ScoreKeeper.c.1.o
                0x000000000000172c                app

DISCARD         0x0000000000001730        0x4
 libc.a(*)
 libm.a(*)
 libgcc.a(*)
 *(.eh_frame)
 .eh_frame      0x0000000000001730        0x0 /Users/anselzandegran/Pebble-dev/arm-cs-tools/bin/../lib/gcc/arm-none-eabi/4.6.3/thumb2/crtbegin.o
 .eh_frame      0x0000000000001730        0x4 /Users/anselzandegran/Pebble-dev/arm-cs-tools/bin/../lib/gcc/arm-none-eabi/4.6.3/thumb2/crtend.o
OUTPUT(/Users/anselzandegran/Pebble-dev/pebble-sdk-release-001/demos/ScoreKeeper/build/pebble-app.elf elf32-littlearm)

.rodata         0x0000000000001734       0x68
 .rodata        0x0000000000001734       0x68 src/ScoreKeeper.c.1.o

.rel.dyn        0x000000000000179c        0x0
 .rel.iplt      0x0000000000000000        0x0 /Users/anselzandegran/Pebble-dev/arm-cs-tools/bin/../lib/gcc/arm-none-eabi/4.6.3/thumb2/crti.o
 .rel.got       0x0000000000000000        0x0 /Users/anselzandegran/Pebble-dev/arm-cs-tools/bin/../lib/gcc/arm-none-eabi/4.6.3/thumb2/crti.o

.ARM.attributes
                0x0000000000000000       0x27
 .ARM.attributes
                0x0000000000000000       0x1b /Users/anselzandegran/Pebble-dev/arm-cs-tools/bin/../lib/gcc/arm-none-eabi/4.6.3/thumb2/crti.o
 .ARM.attributes
                0x000000000000001b       0x2b /Users/anselzandegran/Pebble-dev/arm-cs-tools/bin/../lib/gcc/arm-none-eabi/4.6.3/thumb2/crtbegin.o
 .ARM.attributes
                0x0000000000000046       0x33 src/ScoreKeeper.c.1.o
 .ARM.attributes
                0x0000000000000079       0x21 /Users/anselzandegran/Pebble-dev/pebble-sdk-release-001/demos/ScoreKeeper/lib/libpebble.a(tmpE96Sgtpebble_os.o)
 .ARM.attributes
                0x000000000000009a       0x2b /Users/anselzandegran/Pebble-dev/arm-cs-tools/bin/../lib/gcc/arm-none-eabi/4.6.3/../../../../arm-none-eabi/lib/thumb2/libc.a(lib_a-memset.o)
 .ARM.attributes
                0x00000000000000c5       0x2b /Users/anselzandegran/Pebble-dev/arm-cs-tools/bin/../lib/gcc/arm-none-eabi/4.6.3/thumb2/crtend.o
 .ARM.attributes
                0x00000000000000f0       0x1b /Users/anselzandegran/Pebble-dev/arm-cs-tools/bin/../lib/gcc/arm-none-eabi/4.6.3/thumb2/crtn.o

.comment        0x0000000000000000       0x4e
 .comment       0x0000000000000000       0x4e /Users/anselzandegran/Pebble-dev/arm-cs-tools/bin/../lib/gcc/arm-none-eabi/4.6.3/thumb2/crtbegin.o
                                         0x4f (size before relaxing)
 .comment       0x0000000000000000       0x4f src/ScoreKeeper.c.1.o
 .comment       0x0000000000000000       0x4f /Users/anselzandegran/Pebble-dev/arm-cs-tools/bin/../lib/gcc/arm-none-eabi/4.6.3/../../../../arm-none-eabi/lib/thumb2/libc.a(lib_a-memset.o)
 .comment       0x0000000000000000       0x4f /Users/anselzandegran/Pebble-dev/arm-cs-tools/bin/../lib/gcc/arm-none-eabi/4.6.3/thumb2/crtend.o

.debug_line     0x0000000000000000      0x321
 .debug_line    0x0000000000000000       0x71 /Users/anselzandegran/Pebble-dev/arm-cs-tools/bin/../lib/gcc/arm-none-eabi/4.6.3/thumb2/crti.o
 .debug_line    0x0000000000000071      0x23b src/ScoreKeeper.c.1.o
 .debug_line    0x00000000000002ac       0x75 /Users/anselzandegran/Pebble-dev/arm-cs-tools/bin/../lib/gcc/arm-none-eabi/4.6.3/thumb2/crtn.o

.debug_info     0x0000000000000000     0x17b8
 .debug_info    0x0000000000000000       0xb2 /Users/anselzandegran/Pebble-dev/arm-cs-tools/bin/../lib/gcc/arm-none-eabi/4.6.3/thumb2/crti.o
 .debug_info    0x00000000000000b2     0x1654 src/ScoreKeeper.c.1.o
 .debug_info    0x0000000000001706       0xb2 /Users/anselzandegran/Pebble-dev/arm-cs-tools/bin/../lib/gcc/arm-none-eabi/4.6.3/thumb2/crtn.o

.debug_abbrev   0x0000000000000000      0x272
 .debug_abbrev  0x0000000000000000       0x12 /Users/anselzandegran/Pebble-dev/arm-cs-tools/bin/../lib/gcc/arm-none-eabi/4.6.3/thumb2/crti.o
 .debug_abbrev  0x0000000000000012      0x24e src/ScoreKeeper.c.1.o
 .debug_abbrev  0x0000000000000260       0x12 /Users/anselzandegran/Pebble-dev/arm-cs-tools/bin/../lib/gcc/arm-none-eabi/4.6.3/thumb2/crtn.o

.debug_aranges  0x0000000000000000       0x70
 .debug_aranges
                0x0000000000000000       0x28 /Users/anselzandegran/Pebble-dev/arm-cs-tools/bin/../lib/gcc/arm-none-eabi/4.6.3/thumb2/crti.o
 .debug_aranges
                0x0000000000000028       0x20 src/ScoreKeeper.c.1.o
 .debug_aranges
                0x0000000000000048       0x28 /Users/anselzandegran/Pebble-dev/arm-cs-tools/bin/../lib/gcc/arm-none-eabi/4.6.3/thumb2/crtn.o

.debug_ranges   0x0000000000000000       0x40
 .debug_ranges  0x0000000000000000       0x20 /Users/anselzandegran/Pebble-dev/arm-cs-tools/bin/../lib/gcc/arm-none-eabi/4.6.3/thumb2/crti.o
 .debug_ranges  0x0000000000000020       0x20 /Users/anselzandegran/Pebble-dev/arm-cs-tools/bin/../lib/gcc/arm-none-eabi/4.6.3/thumb2/crtn.o

.debug_loc      0x0000000000000000      0x306
 .debug_loc     0x0000000000000000      0x306 src/ScoreKeeper.c.1.o

.debug_str      0x0000000000000000      0xe90
 .debug_str     0x0000000000000000      0xe90 src/ScoreKeeper.c.1.o
                                        0xf80 (size before relaxing)

.debug_frame    0x0000000000000000      0x1c4
 .debug_frame   0x0000000000000000      0x1c4 src/ScoreKeeper.c.1.o
